target datalayout = "e-m:e-p270:32:32-p271:32:32-p272:64:64-i64:64-i128:128-f80:128-n8:16:32:64-S128"
target triple = "x86_64-pc-linux-gnu"

%"struct.Luau::CodeGen::X64::RegisterX64" = type { i8 }
%"struct.Luau::CodeGen::A64::RegisterA64" = type { i8 }
%"struct.Luau::CodeGen::IrOp" = type { i32 }
%"struct.Luau::CodeGen::IrInst" = type <{ i8, [3 x i8], %"struct.Luau::CodeGen::IrOp", %"struct.Luau::CodeGen::IrOp", %"struct.Luau::CodeGen::IrOp", %"struct.Luau::CodeGen::IrOp", %"struct.Luau::CodeGen::IrOp", %"struct.Luau::CodeGen::IrOp", %"struct.Luau::CodeGen::IrOp", i32, i16, %"struct.Luau::CodeGen::X64::RegisterX64", %"struct.Luau::CodeGen::A64::RegisterA64", i8, i8, i8, i8 }>

; Function Attrs: mustprogress uwtable
define dso_local void @_ZN4Luau7CodeGen18applySubstitutionsERNS0_10IrFunctionERNS0_6IrInstE(ptr noundef nonnull align 8 dereferenceable(624) %0, ptr noundef nonnull align 4 dereferenceable(43) %1) #1 {
  %3 = alloca ptr, align 8
  %4 = alloca ptr, align 8
  store ptr %0, ptr %3, align 8, !tbaa !8
  store ptr %1, ptr %4, align 8, !tbaa !39
  %5 = load ptr, ptr %3, align 8, !tbaa !8
  %6 = load ptr, ptr %4, align 8, !tbaa !39
  %7 = getelementptr inbounds nuw %"struct.Luau::CodeGen::IrInst", ptr %6, i32 0, i32 2
  call void @_ZN4Luau7CodeGen18applySubstitutionsERNS0_10IrFunctionERNS0_4IrOpE(ptr noundef nonnull align 8 dereferenceable(624) %5, ptr noundef nonnull align 4 dereferenceable(4) %7)
  %8 = load ptr, ptr %3, align 8, !tbaa !8
  %9 = load ptr, ptr %4, align 8, !tbaa !39
  %10 = getelementptr inbounds nuw %"struct.Luau::CodeGen::IrInst", ptr %9, i32 0, i32 3
  call void @_ZN4Luau7CodeGen18applySubstitutionsERNS0_10IrFunctionERNS0_4IrOpE(ptr noundef nonnull align 8 dereferenceable(624) %8, ptr noundef nonnull align 4 dereferenceable(4) %10)
  %11 = load ptr, ptr %3, align 8, !tbaa !8
  %12 = load ptr, ptr %4, align 8, !tbaa !39
  %13 = getelementptr inbounds nuw %"struct.Luau::CodeGen::IrInst", ptr %12, i32 0, i32 4
  call void @_ZN4Luau7CodeGen18applySubstitutionsERNS0_10IrFunctionERNS0_4IrOpE(ptr noundef nonnull align 8 dereferenceable(624) %11, ptr noundef nonnull align 4 dereferenceable(4) %13)
  %14 = load ptr, ptr %3, align 8, !tbaa !8
  %15 = load ptr, ptr %4, align 8, !tbaa !39
  %16 = getelementptr inbounds nuw %"struct.Luau::CodeGen::IrInst", ptr %15, i32 0, i32 5
  call void @_ZN4Luau7CodeGen18applySubstitutionsERNS0_10IrFunctionERNS0_4IrOpE(ptr noundef nonnull align 8 dereferenceable(624) %14, ptr noundef nonnull align 4 dereferenceable(4) %16)
  %17 = load ptr, ptr %3, align 8, !tbaa !8
  %18 = load ptr, ptr %4, align 8, !tbaa !39
  %19 = getelementptr inbounds nuw %"struct.Luau::CodeGen::IrInst", ptr %18, i32 0, i32 6
  call void @_ZN4Luau7CodeGen18applySubstitutionsERNS0_10IrFunctionERNS0_4IrOpE(ptr noundef nonnull align 8 dereferenceable(624) %17, ptr noundef nonnull align 4 dereferenceable(4) %19)
  %20 = load ptr, ptr %3, align 8, !tbaa !8
  %21 = load ptr, ptr %4, align 8, !tbaa !39
  %22 = getelementptr inbounds nuw %"struct.Luau::CodeGen::IrInst", ptr %21, i32 0, i32 7
  call void @_ZN4Luau7CodeGen18applySubstitutionsERNS0_10IrFunctionERNS0_4IrOpE(ptr noundef nonnull align 8 dereferenceable(624) %20, ptr noundef nonnull align 4 dereferenceable(4) %22)
  %23 = load ptr, ptr %3, align 8, !tbaa !8
  %24 = load ptr, ptr %4, align 8, !tbaa !39
  %25 = getelementptr inbounds nuw %"struct.Luau::CodeGen::IrInst", ptr %24, i32 0, i32 8
  call void @_ZN4Luau7CodeGen18applySubstitutionsERNS0_10IrFunctionERNS0_4IrOpE(ptr noundef nonnull align 8 dereferenceable(624) %23, ptr noundef nonnull align 4 dereferenceable(4) %25)
  ret void
}