; Function Attrs: mustprogress nofree nosync nounwind memory(readwrite, inaccessiblemem: none) uwtable
define dso_local void @_ZN4Luau7CodeGen18applySubstitutionsERNS0_10IrFunctionERNS0_6IrInstE(ptr noundef nonnull align 8 dereferenceable(624) %0, ptr noundef nonnull align 4 captures(none) dereferenceable(43) %1) local_unnamed_addr #2 {
  %3 = getelementptr inbounds nuw i8, ptr %1, i64 4
  tail call void @_ZN4Luau7CodeGen18applySubstitutionsERNS0_10IrFunctionERNS0_4IrOpE(ptr noundef nonnull align 8 dereferenceable(624) %0, ptr noundef nonnull align 4 dereferenceable(4) %3)
  %4 = getelementptr inbounds nuw i8, ptr %1, i64 8
  tail call void @_ZN4Luau7CodeGen18applySubstitutionsERNS0_10IrFunctionERNS0_4IrOpE(ptr noundef nonnull align 8 dereferenceable(624) %0, ptr noundef nonnull align 4 dereferenceable(4) %4)
  %5 = getelementptr inbounds nuw i8, ptr %1, i64 12
  tail call void @_ZN4Luau7CodeGen18applySubstitutionsERNS0_10IrFunctionERNS0_4IrOpE(ptr noundef nonnull align 8 dereferenceable(624) %0, ptr noundef nonnull align 4 dereferenceable(4) %5)
  %6 = getelementptr inbounds nuw i8, ptr %1, i64 16
  tail call void @_ZN4Luau7CodeGen18applySubstitutionsERNS0_10IrFunctionERNS0_4IrOpE(ptr noundef nonnull align 8 dereferenceable(624) %0, ptr noundef nonnull align 4 dereferenceable(4) %6)
  %7 = getelementptr inbounds nuw i8, ptr %1, i64 20
  tail call void @_ZN4Luau7CodeGen18applySubstitutionsERNS0_10IrFunctionERNS0_4IrOpE(ptr noundef nonnull align 8 dereferenceable(624) %0, ptr noundef nonnull align 4 dereferenceable(4) %7)
  %8 = getelementptr inbounds nuw i8, ptr %1, i64 24
  tail call void @_ZN4Luau7CodeGen18applySubstitutionsERNS0_10IrFunctionERNS0_4IrOpE(ptr noundef nonnull align 8 dereferenceable(624) %0, ptr noundef nonnull align 4 dereferenceable(4) %8)
  %9 = getelementptr inbounds nuw i8, ptr %1, i64 28
  tail call void @_ZN4Luau7CodeGen18applySubstitutionsERNS0_10IrFunctionERNS0_4IrOpE(ptr noundef nonnull align 8 dereferenceable(624) %0, ptr noundef nonnull align 4 dereferenceable(4) %9)
  ret void
}